Certificate:
    Data:
        Version: 3 (0x2)
        Serial Number: 2 (0x2)
        Signature Algorithm: sha256WithRSAEncryption
        Issuer: C=CN, ST=HuNan, L=ChangSha, O=Example Inc./emailAddress=admin@example.org, CN=Example Certificate Authority
        Validity
            Not Before: May 29 02:20:12 2025 GMT
            Not After : May 24 02:20:12 2026 GMT
        Subject: C=CN, ST=HuNan, O=Example Inc., CN=user@example.org/emailAddress=user@example.org
        Subject Public Key Info:
            Public Key Algorithm: rsaEncryption
                RSA Public-Key: (2048 bit)
                Modulus:
                    00:ad:5f:b6:88:05:ea:a7:6d:37:b8:e7:eb:28:c3:
                    f8:bd:d8:9e:0a:d2:a8:39:57:e0:d0:8e:2c:71:b9:
                    e1:f9:8c:1f:a8:1f:41:55:e6:ec:d4:33:13:ce:11:
                    19:18:04:8e:fb:4d:11:d0:d9:66:b5:56:91:37:12:
                    4c:65:4b:85:5b:26:c2:56:08:c2:ee:6b:45:20:98:
                    58:7e:82:d9:c7:45:ee:6f:7a:bc:42:a0:9c:5c:e9:
                    53:76:6f:a5:a2:91:59:53:a4:38:08:07:18:ae:61:
                    ef:55:99:b2:65:d7:92:1b:da:ee:88:de:34:db:2c:
                    5a:dc:c2:11:77:33:4f:9a:78:aa:d3:9a:98:ee:2b:
                    bb:0c:f4:d7:03:7a:b2:0f:f1:ba:af:d5:21:73:a7:
                    7c:7a:df:af:c2:57:7e:a9:e2:6b:12:e3:fb:56:7a:
                    f5:59:86:c5:65:6f:62:7f:f7:bc:b7:4b:95:80:5e:
                    5b:cb:1a:2e:b6:19:96:a6:db:3a:a9:39:cc:39:73:
                    5c:4e:13:0b:d4:e4:38:44:43:c5:2e:e8:d5:45:a6:
                    fc:78:11:c4:f9:b2:8a:ef:8a:6a:7b:a6:4f:3f:5b:
                    e3:cc:41:a6:09:a9:34:05:f8:39:bc:21:35:57:b2:
                    b2:3d:67:31:74:7f:63:4f:24:42:1d:87:62:e4:3b:
                    67:bb
                Exponent: 65537 (0x10001)
        X509v3 extensions:
            X509v3 Extended Key Usage: 
                TLS Web Client Authentication
            X509v3 CRL Distribution Points: 

                Full Name:
                  URI:http://www.example.com/example_ca.crl

    Signature Algorithm: sha256WithRSAEncryption
         40:f4:77:f0:f1:0e:04:04:d2:00:92:31:65:3a:1a:c8:72:72:
         f2:2c:b5:a4:c1:bd:07:f6:04:1a:a4:f1:81:63:a3:8f:52:93:
         1e:ca:24:21:0e:22:b0:a7:a0:57:de:06:22:73:4a:bc:99:68:
         49:49:29:96:d9:f7:f0:67:27:f7:d8:19:dd:6d:30:71:e8:50:
         8f:06:83:96:4f:65:19:2e:3e:6c:e6:69:a6:ea:2b:e1:8a:3d:
         68:93:70:e0:6d:c3:41:b7:f5:99:eb:0a:2d:d3:42:23:21:28:
         0f:a6:4a:69:65:ff:63:ea:e6:c7:82:c5:0e:f0:90:a7:0f:83:
         17:15:32:42:84:57:a2:63:f8:66:9d:1c:69:95:c4:dd:8c:32:
         b8:e3:62:0c:c7:9e:05:dd:3a:4d:7c:a0:fa:2d:e5:49:a6:a4:
         e5:3c:47:72:04:9f:ee:63:95:ae:89:b1:44:8c:36:b3:e6:eb:
         f3:ed:68:52:4a:67:ce:aa:98:66:df:df:fe:40:92:42:2d:c4:
         ab:8f:45:2d:c8:82:36:97:9f:7f:31:87:89:80:c2:cf:a9:d2:
         1e:40:2c:88:da:fc:38:7e:18:47:78:18:6a:43:3b:b8:23:d4:
         a6:b5:61:aa:47:fb:3c:64:2e:e0:34:71:9e:11:f1:de:43:fc:
         a0:25:37:45
-----BEGIN CERTIFICATE-----
MIIDzDCCArSgAwIBAgIBAjANBgkqhkiG9w0BAQsFADCBkTELMAkGA1UEBhMCQ04x
DjAMBgNVBAgMBUh1TmFuMREwDwYDVQQHDAhDaGFuZ1NoYTEVMBMGA1UECgwMRXhh
bXBsZSBJbmMuMSAwHgYJKoZIhvcNAQkBFhFhZG1pbkBleGFtcGxlLm9yZzEmMCQG
A1UEAwwdRXhhbXBsZSBDZXJ0aWZpY2F0ZSBBdXRob3JpdHkwHhcNMjUwNTI5MDIy
MDEyWhcNMjYwNTI0MDIyMDEyWjBwMQswCQYDVQQGEwJDTjEOMAwGA1UECAwFSHVO
YW4xFTATBgNVBAoMDEV4YW1wbGUgSW5jLjEZMBcGA1UEAwwQdXNlckBleGFtcGxl
Lm9yZzEfMB0GCSqGSIb3DQEJARYQdXNlckBleGFtcGxlLm9yZzCCASIwDQYJKoZI
hvcNAQEBBQADggEPADCCAQoCggEBAK1ftogF6qdtN7jn6yjD+L3YngrSqDlX4NCO
LHG54fmMH6gfQVXm7NQzE84RGRgEjvtNEdDZZrVWkTcSTGVLhVsmwlYIwu5rRSCY
WH6C2cdF7m96vEKgnFzpU3ZvpaKRWVOkOAgHGK5h71WZsmXXkhva7ojeNNssWtzC
EXczT5p4qtOamO4ruwz01wN6sg/xuq/VIXOnfHrfr8JXfqniaxLj+1Z69VmGxWVv
Yn/3vLdLlYBeW8saLrYZlqbbOqk5zDlzXE4TC9TkOERDxS7o1UWm/HgRxPmyiu+K
anumTz9b48xBpgmpNAX4ObwhNVeysj1nMXR/Y08kQh2HYuQ7Z7sCAwEAAaNPME0w
EwYDVR0lBAwwCgYIKwYBBQUHAwIwNgYDVR0fBC8wLTAroCmgJ4YlaHR0cDovL3d3
dy5leGFtcGxlLmNvbS9leGFtcGxlX2NhLmNybDANBgkqhkiG9w0BAQsFAAOCAQEA
QPR38PEOBATSAJIxZToayHJy8iy1pMG9B/YEGqTxgWOjj1KTHsokIQ4isKegV94G
InNKvJloSUkpltn38Gcn99gZ3W0wcehQjwaDlk9lGS4+bOZppuor4Yo9aJNw4G3D
Qbf1mesKLdNCIyEoD6ZKaWX/Y+rmx4LFDvCQpw+DFxUyQoRXomP4Zp0caZXE3Ywy
uONiDMeeBd06TXyg+i3lSaak5TxHcgSf7mOVromxRIw2s+br8+1oUkpnzqqYZt/f
/kCSQi3Eq49FLciCNpeffzGHiYDCz6nSHkAsiNr8OH4YR3gYakM7uCPUprVhqkf7
PGQu4DRxnhHx3kP8oCU3RQ==
-----END CERTIFICATE-----
