Certificate:
    Data:
        Version: 3 (0x2)
        Serial Number: 1 (0x1)
    Signature Algorithm: sha256WithRSAEncryption
        Issuer: C=CN, ST=HuNan, L=ChangSha, O=Example Inc./emailAddress=admin@example.org, CN=Example Certificate Authority
        Validity
            Not Before: Nov 20 06:20:59 2024 GMT
            Not After : Nov 15 06:20:59 2025 GMT
        Subject: C=CN, ST=HuNan, O=Example Inc., CN=Example Server Certificate/emailAddress=admin@example.org
        Subject Public Key Info:
            Public Key Algorithm: rsaEncryption
                Public-Key: (2048 bit)
                Modulus:
                    00:c4:d2:26:8d:09:71:4d:93:92:38:13:e3:e0:15:
                    f4:7e:45:9d:ea:14:4c:2a:cb:66:a6:36:7a:38:d4:
                    09:7c:c3:b5:d2:f2:ae:21:75:6e:03:45:28:fc:2c:
                    9a:99:14:1a:b5:88:71:f7:6e:d3:44:27:c3:c4:f6:
                    9d:f9:08:f1:70:1a:c5:e9:52:47:25:94:9e:d1:df:
                    70:37:30:a9:87:16:9c:71:bc:08:53:47:2b:b7:56:
                    3e:bc:38:ea:43:16:e0:1d:e2:d0:b5:80:fa:1b:d1:
                    e2:c4:71:4c:da:d6:c2:46:f8:47:7c:a7:56:e6:85:
                    ed:c4:e9:b7:8c:a0:17:b6:65:6c:45:52:44:e1:4f:
                    ba:bd:72:30:2e:70:16:7e:a4:06:fb:e9:5e:a0:c8:
                    9d:58:2d:b8:fa:87:93:e0:f6:92:85:7c:8a:bc:aa:
                    c3:26:36:4a:1e:b0:f7:0e:75:33:ec:f7:35:4c:72:
                    19:d1:0d:fd:f3:41:33:6a:f0:8a:ad:bf:97:a8:34:
                    83:51:d0:c4:b6:bb:b1:01:18:bb:bd:ff:fb:77:fd:
                    df:4e:27:d0:e2:b9:96:08:2e:d0:e6:60:51:c4:70:
                    2f:09:80:7b:b7:5e:4a:0f:ec:45:f7:28:16:af:b1:
                    b1:ab:a6:40:de:f7:67:3b:a6:25:6b:f5:c5:5c:f0:
                    14:89
                Exponent: 65537 (0x10001)
        X509v3 extensions:
            X509v3 Extended Key Usage: 
                TLS Web Server Authentication
            X509v3 CRL Distribution Points: 

                Full Name:
                  URI:http://www.example.com/example_ca.crl

    Signature Algorithm: sha256WithRSAEncryption
         2e:ca:52:ac:ea:04:20:7d:b0:af:12:b5:4c:41:8f:87:51:c8:
         3d:2e:4f:fc:47:13:b7:6d:3b:53:81:86:40:f1:ea:c8:d1:ca:
         c4:f6:78:4a:e5:dd:c6:e4:16:4a:30:f4:0e:b8:14:75:82:82:
         4d:52:00:71:e8:25:be:7c:71:f3:2d:bc:36:20:12:ff:b9:1e:
         34:f7:aa:64:d8:4a:15:26:36:8e:9a:9e:70:ba:98:df:3b:2c:
         12:2f:25:c9:fb:bf:9d:54:ad:01:de:46:fc:72:03:99:49:64:
         f9:81:a0:65:cd:5f:91:f0:97:2b:b9:9a:3f:11:e2:5d:52:30:
         26:39:4c:60:15:8a:36:74:6b:51:9d:5f:56:f7:45:02:1b:46:
         62:6f:6b:03:ae:73:eb:2a:60:be:0f:ef:66:1b:ed:7d:6e:51:
         0b:21:58:61:ae:c6:9f:cb:c1:59:e1:4e:32:07:82:7c:32:75:
         87:6a:b3:32:32:ae:1c:58:d0:ba:77:03:30:04:05:f3:d5:32:
         5e:21:e8:f3:e6:0e:36:21:2f:fa:19:dd:8f:44:6d:7d:c9:19:
         5d:be:a0:f3:01:57:7d:9d:75:47:b5:9b:be:1b:4b:df:cb:f4:
         43:08:7d:f2:5e:87:b3:b1:84:d0:2a:02:e9:95:b0:ca:06:77:
         11:19:ea:6f
-----BEGIN CERTIFICATE-----
MIID1zCCAr+gAwIBAgIBATANBgkqhkiG9w0BAQsFADCBkTELMAkGA1UEBhMCQ04x
DjAMBgNVBAgMBUh1TmFuMREwDwYDVQQHDAhDaGFuZ1NoYTEVMBMGA1UECgwMRXhh
bXBsZSBJbmMuMSAwHgYJKoZIhvcNAQkBFhFhZG1pbkBleGFtcGxlLm9yZzEmMCQG
A1UEAwwdRXhhbXBsZSBDZXJ0aWZpY2F0ZSBBdXRob3JpdHkwHhcNMjQxMTIwMDYy
MDU5WhcNMjUxMTE1MDYyMDU5WjB7MQswCQYDVQQGEwJDTjEOMAwGA1UECAwFSHVO
YW4xFTATBgNVBAoMDEV4YW1wbGUgSW5jLjEjMCEGA1UEAwwaRXhhbXBsZSBTZXJ2
ZXIgQ2VydGlmaWNhdGUxIDAeBgkqhkiG9w0BCQEWEWFkbWluQGV4YW1wbGUub3Jn
MIIBIjANBgkqhkiG9w0BAQEFAAOCAQ8AMIIBCgKCAQEAxNImjQlxTZOSOBPj4BX0
fkWd6hRMKstmpjZ6ONQJfMO10vKuIXVuA0Uo/CyamRQatYhx927TRCfDxPad+Qjx
cBrF6VJHJZSe0d9wNzCphxaccbwIU0crt1Y+vDjqQxbgHeLQtYD6G9HixHFM2tbC
RvhHfKdW5oXtxOm3jKAXtmVsRVJE4U+6vXIwLnAWfqQG++leoMidWC24+oeT4PaS
hXyKvKrDJjZKHrD3DnUz7Pc1THIZ0Q3980EzavCKrb+XqDSDUdDEtruxARi7vf/7
d/3fTifQ4rmWCC7Q5mBRxHAvCYB7t15KD+xF9ygWr7Gxq6ZA3vdnO6Yla/XFXPAU
iQIDAQABo08wTTATBgNVHSUEDDAKBggrBgEFBQcDATA2BgNVHR8ELzAtMCugKaAn
hiVodHRwOi8vd3d3LmV4YW1wbGUuY29tL2V4YW1wbGVfY2EuY3JsMA0GCSqGSIb3
DQEBCwUAA4IBAQAuylKs6gQgfbCvErVMQY+HUcg9Lk/8RxO3bTtTgYZA8erI0crE
9nhK5d3G5BZKMPQOuBR1goJNUgBx6CW+fHHzLbw2IBL/uR4096pk2EoVJjaOmp5w
upjfOywSLyXJ+7+dVK0B3kb8cgOZSWT5gaBlzV+R8JcruZo/EeJdUjAmOUxgFYo2
dGtRnV9W90UCG0Zib2sDrnPrKmC+D+9mG+19blELIVhhrsafy8FZ4U4yB4J8MnWH
arMyMq4cWNC6dwMwBAXz1TJeIejz5g42IS/6Gd2PRG19yRldvqDzAVd9nXVHtZu+
G0vfy/RDCH3yXoezsYTQKgLplbDKBncRGepv
-----END CERTIFICATE-----
