Certificate:
    Data:
        Version: 3 (0x2)
        Serial Number: 2 (0x2)
    Signature Algorithm: sha256WithRSAEncryption
        Issuer: C=CN, ST=HuNan, L=ChangSha, O=Example Inc./emailAddress=admin@example.org, CN=Example Certificate Authority
        Validity
            Not Before: Nov 20 06:21:41 2024 GMT
            Not After : Nov 15 06:21:41 2025 GMT
        Subject: C=CN, ST=HuNan, O=Example Inc., CN=user@example.org/emailAddress=user@example.org
        Subject Public Key Info:
            Public Key Algorithm: rsaEncryption
                Public-Key: (2048 bit)
                Modulus:
                    00:e6:c0:76:63:e3:25:3a:d0:45:5a:24:48:0d:c3:
                    b2:a9:a2:7a:1f:f6:0c:82:8a:16:b7:6e:4d:90:d2:
                    10:d2:c8:7b:4e:65:8a:34:71:ce:d3:f5:10:dd:39:
                    cd:c8:06:80:84:10:ea:eb:1d:96:e8:f8:a7:44:a3:
                    c5:0f:7f:ec:c1:2f:be:bf:e0:0d:ce:4d:43:76:f2:
                    11:93:7f:50:39:f6:93:6d:88:28:8d:55:65:94:25:
                    55:e1:7e:57:83:3f:d6:fc:e2:3d:18:ab:5a:91:47:
                    2b:d9:04:0a:41:e8:4b:58:1b:e5:51:8e:8f:b3:38:
                    97:d3:8c:a0:59:99:2c:d3:52:40:5f:c7:8d:09:e2:
                    6a:e7:01:5d:8b:81:3c:42:88:b2:63:2e:cd:71:31:
                    bb:9a:7c:3c:62:0c:b4:ec:f7:94:e3:81:cc:4f:85:
                    77:8e:31:c6:72:42:b3:d2:c9:a2:f0:c1:bf:cf:4e:
                    20:fa:f8:72:4b:b6:29:df:62:88:7a:c6:fd:31:4c:
                    66:d4:3a:da:38:e0:33:1e:09:5b:a4:63:1e:ff:38:
                    33:7d:7f:47:dc:e7:26:4f:cc:4f:6b:9c:01:3b:62:
                    f0:90:50:3c:5b:be:3c:17:75:e1:2f:e1:8a:56:c0:
                    88:dd:b6:ec:48:5b:51:ed:8f:e2:bc:21:47:b0:11:
                    bf:7b
                Exponent: 65537 (0x10001)
        X509v3 extensions:
            X509v3 Extended Key Usage: 
                TLS Web Client Authentication
            X509v3 CRL Distribution Points: 

                Full Name:
                  URI:http://www.example.com/example_ca.crl

    Signature Algorithm: sha256WithRSAEncryption
         35:11:da:91:9d:96:86:c5:c6:50:0c:ae:08:58:0c:f7:31:b7:
         a5:40:af:86:52:22:33:81:ec:d4:6d:ba:1f:16:b2:e7:83:ed:
         be:89:61:81:3b:eb:f0:a7:08:91:b2:8c:f5:9b:b8:94:d4:5d:
         b4:4c:70:d2:ac:14:6a:03:11:19:37:c2:57:a9:28:d5:bc:3e:
         36:f5:b0:99:ee:c2:be:c6:f1:fd:bf:37:03:20:d0:40:a8:05:
         28:3c:0c:b4:12:7a:d8:ea:b9:84:66:db:df:40:ea:c2:fb:be:
         af:06:81:f1:fe:67:e4:df:86:6a:6a:0f:2b:c4:de:24:81:ee:
         e5:f9:45:c0:cd:bc:9d:23:93:e9:df:f5:6f:12:82:bf:07:8d:
         ae:82:d2:02:10:74:2e:f0:3a:2f:9c:a4:78:0d:43:7f:2c:f1:
         40:44:6a:a3:30:c1:fa:dd:1c:83:23:50:ec:c0:dc:68:29:44:
         b1:02:d0:29:bc:2a:e9:83:dd:e6:ca:11:e2:b4:52:30:db:b7:
         94:ec:f4:ca:10:ec:62:89:20:b2:d1:29:16:25:43:4c:b4:15:
         9b:ea:37:54:a1:6f:9e:30:d3:c9:75:1f:cd:17:92:e0:f2:6c:
         6e:18:2e:1c:d2:5d:d4:e6:8a:9e:ad:61:a8:5c:08:07:06:c8:
         0f:d7:7e:10
-----BEGIN CERTIFICATE-----
MIIDzDCCArSgAwIBAgIBAjANBgkqhkiG9w0BAQsFADCBkTELMAkGA1UEBhMCQ04x
DjAMBgNVBAgMBUh1TmFuMREwDwYDVQQHDAhDaGFuZ1NoYTEVMBMGA1UECgwMRXhh
bXBsZSBJbmMuMSAwHgYJKoZIhvcNAQkBFhFhZG1pbkBleGFtcGxlLm9yZzEmMCQG
A1UEAwwdRXhhbXBsZSBDZXJ0aWZpY2F0ZSBBdXRob3JpdHkwHhcNMjQxMTIwMDYy
MTQxWhcNMjUxMTE1MDYyMTQxWjBwMQswCQYDVQQGEwJDTjEOMAwGA1UECAwFSHVO
YW4xFTATBgNVBAoMDEV4YW1wbGUgSW5jLjEZMBcGA1UEAwwQdXNlckBleGFtcGxl
Lm9yZzEfMB0GCSqGSIb3DQEJARYQdXNlckBleGFtcGxlLm9yZzCCASIwDQYJKoZI
hvcNAQEBBQADggEPADCCAQoCggEBAObAdmPjJTrQRVokSA3Dsqmieh/2DIKKFrdu
TZDSENLIe05lijRxztP1EN05zcgGgIQQ6usdluj4p0SjxQ9/7MEvvr/gDc5NQ3by
EZN/UDn2k22IKI1VZZQlVeF+V4M/1vziPRirWpFHK9kECkHoS1gb5VGOj7M4l9OM
oFmZLNNSQF/HjQniaucBXYuBPEKIsmMuzXExu5p8PGIMtOz3lOOBzE+Fd44xxnJC
s9LJovDBv89OIPr4cku2Kd9iiHrG/TFMZtQ62jjgMx4JW6RjHv84M31/R9znJk/M
T2ucATti8JBQPFu+PBd14S/hilbAiN227EhbUe2P4rwhR7ARv3sCAwEAAaNPME0w
EwYDVR0lBAwwCgYIKwYBBQUHAwIwNgYDVR0fBC8wLTAroCmgJ4YlaHR0cDovL3d3
dy5leGFtcGxlLmNvbS9leGFtcGxlX2NhLmNybDANBgkqhkiG9w0BAQsFAAOCAQEA
NRHakZ2WhsXGUAyuCFgM9zG3pUCvhlIiM4Hs1G26Hxay54PtvolhgTvr8KcIkbKM
9Zu4lNRdtExw0qwUagMRGTfCV6ko1bw+NvWwme7Cvsbx/b83AyDQQKgFKDwMtBJ6
2Oq5hGbb30Dqwvu+rwaB8f5n5N+GamoPK8TeJIHu5flFwM28nSOT6d/1bxKCvweN
roLSAhB0LvA6L5ykeA1DfyzxQERqozDB+t0cgyNQ7MDcaClEsQLQKbwq6YPd5soR
4rRSMNu3lOz0yhDsYokgstEpFiVDTLQVm+o3VKFvnjDTyXUfzReS4PJsbhguHNJd
1OaKnq1hqFwIBwbID9d+EA==
-----END CERTIFICATE-----
